; ModuleID = '10/525.c'
source_filename = "10/525.c"
target datalayout = "e-m:e-p270:32:32-p271:32:32-p272:64:64-i64:64-f80:128-n8:16:32:64-S128"
target triple = "x86_64-pc-linux-gnu"

@ans = common dso_local global [26 x i32] zeroinitializer, align 16
@N = common dso_local global i32 0, align 4
@input = common dso_local global [26 x i32] zeroinitializer, align 16
@Max = common dso_local global i32 0, align 4
@.str = private unnamed_addr constant [3 x i8] c"%d\00", align 1
@i = common dso_local global i32 0, align 4
@.str.1 = private unnamed_addr constant [4 x i8] c"%d\0A\00", align 1
@j = common dso_local global i32 0, align 4
@k = common dso_local global i32 0, align 4

; Function Attrs: noinline nounwind uwtable
define dso_local i32 @cons(i32 %0) #0 {
  %2 = alloca i32, align 4
  %3 = alloca i32, align 4
  %4 = alloca i32, align 4
  %5 = alloca i32, align 4
  store i32 %0, i32* %3, align 4
  store i32 0, i32* %4, align 4
  %6 = load i32, i32* %3, align 4
  %7 = sext i32 %6 to i64
  %8 = getelementptr inbounds [26 x i32], [26 x i32]* @ans, i64 0, i64 %7
  %9 = load i32, i32* %8, align 4
  %10 = icmp ne i32 %9, 0
  br i1 %10, label %11, label %16

11:                                               ; preds = %1
  %12 = load i32, i32* %3, align 4
  %13 = sext i32 %12 to i64
  %14 = getelementptr inbounds [26 x i32], [26 x i32]* @ans, i64 0, i64 %13
  %15 = load i32, i32* %14, align 4
  store i32 %15, i32* %2, align 4
  br label %58

16:                                               ; preds = %1
  %17 = load i32, i32* %3, align 4
  %18 = add nsw i32 %17, 1
  store i32 %18, i32* %5, align 4
  br label %19

19:                                               ; preds = %45, %16
  %20 = load i32, i32* %5, align 4
  %21 = load i32, i32* @N, align 4
  %22 = icmp slt i32 %20, %21
  br i1 %22, label %23, label %48

23:                                               ; preds = %19
  %24 = load i32, i32* %5, align 4
  %25 = sext i32 %24 to i64
  %26 = getelementptr inbounds [26 x i32], [26 x i32]* @input, i64 0, i64 %25
  %27 = load i32, i32* %26, align 4
  %28 = load i32, i32* %3, align 4
  %29 = sext i32 %28 to i64
  %30 = getelementptr inbounds [26 x i32], [26 x i32]* @input, i64 0, i64 %29
  %31 = load i32, i32* %30, align 4
  %32 = icmp sle i32 %27, %31
  br i1 %32, label %33, label %44

33:                                               ; preds = %23
  %34 = load i32, i32* %4, align 4
  %35 = load i32, i32* %5, align 4
  %36 = call i32 @cons(i32 %35)
  %37 = icmp slt i32 %34, %36
  br i1 %37, label %38, label %43

38:                                               ; preds = %33
  %39 = load i32, i32* %5, align 4
  %40 = sext i32 %39 to i64
  %41 = getelementptr inbounds [26 x i32], [26 x i32]* @ans, i64 0, i64 %40
  %42 = load i32, i32* %41, align 4
  store i32 %42, i32* %4, align 4
  br label %43

43:                                               ; preds = %38, %33
  br label %44

44:                                               ; preds = %43, %23
  br label %45

45:                                               ; preds = %44
  %46 = load i32, i32* %5, align 4
  %47 = add nsw i32 %46, 1
  store i32 %47, i32* %5, align 4
  br label %19

48:                                               ; preds = %19
  %49 = load i32, i32* %4, align 4
  %50 = add nsw i32 %49, 1
  %51 = load i32, i32* %3, align 4
  %52 = sext i32 %51 to i64
  %53 = getelementptr inbounds [26 x i32], [26 x i32]* @ans, i64 0, i64 %52
  store i32 %50, i32* %53, align 4
  %54 = load i32, i32* %3, align 4
  %55 = sext i32 %54 to i64
  %56 = getelementptr inbounds [26 x i32], [26 x i32]* @ans, i64 0, i64 %55
  %57 = load i32, i32* %56, align 4
  store i32 %57, i32* %2, align 4
  br label %58

58:                                               ; preds = %48, %11
  %59 = load i32, i32* %2, align 4
  ret i32 %59
}

; Function Attrs: noinline nounwind uwtable
define dso_local i32 @main() #0 {
  %1 = alloca i32, align 4
  store i32 0, i32* %1, align 4
  store i32 0, i32* @Max, align 4
  %2 = call i32 (i8*, ...) @__isoc99_scanf(i8* getelementptr inbounds ([3 x i8], [3 x i8]* @.str, i64 0, i64 0), i32* @N)
  store i32 0, i32* @i, align 4
  br label %3

3:                                                ; preds = %15, %0
  %4 = load i32, i32* @i, align 4
  %5 = load i32, i32* @N, align 4
  %6 = icmp slt i32 %4, %5
  br i1 %6, label %7, label %18

7:                                                ; preds = %3
  %8 = load i32, i32* @i, align 4
  %9 = sext i32 %8 to i64
  %10 = getelementptr inbounds [26 x i32], [26 x i32]* @input, i64 0, i64 %9
  %11 = call i32 (i8*, ...) @__isoc99_scanf(i8* getelementptr inbounds ([3 x i8], [3 x i8]* @.str, i64 0, i64 0), i32* %10)
  %12 = load i32, i32* @i, align 4
  %13 = sext i32 %12 to i64
  %14 = getelementptr inbounds [26 x i32], [26 x i32]* @ans, i64 0, i64 %13
  store i32 0, i32* %14, align 4
  br label %15

15:                                               ; preds = %7
  %16 = load i32, i32* @i, align 4
  %17 = add nsw i32 %16, 1
  store i32 %17, i32* @i, align 4
  br label %3

18:                                               ; preds = %3
  %19 = load i32, i32* @N, align 4
  %20 = sub nsw i32 %19, 1
  store i32 %20, i32* @i, align 4
  br label %21

21:                                               ; preds = %35, %18
  %22 = load i32, i32* @i, align 4
  %23 = icmp sge i32 %22, 0
  br i1 %23, label %24, label %38

24:                                               ; preds = %21
  %25 = load i32, i32* @Max, align 4
  %26 = load i32, i32* @i, align 4
  %27 = call i32 @cons(i32 %26)
  %28 = icmp slt i32 %25, %27
  br i1 %28, label %29, label %34

29:                                               ; preds = %24
  %30 = load i32, i32* @i, align 4
  %31 = sext i32 %30 to i64
  %32 = getelementptr inbounds [26 x i32], [26 x i32]* @ans, i64 0, i64 %31
  %33 = load i32, i32* %32, align 4
  store i32 %33, i32* @Max, align 4
  br label %34

34:                                               ; preds = %29, %24
  br label %35

35:                                               ; preds = %34
  %36 = load i32, i32* @i, align 4
  %37 = add nsw i32 %36, -1
  store i32 %37, i32* @i, align 4
  br label %21

38:                                               ; preds = %21
  %39 = load i32, i32* @Max, align 4
  %40 = call i32 (i8*, ...) @printf(i8* getelementptr inbounds ([4 x i8], [4 x i8]* @.str.1, i64 0, i64 0), i32 %39)
  ret i32 0
}

declare dso_local i32 @__isoc99_scanf(i8*, ...) #1

declare dso_local i32 @printf(i8*, ...) #1


!llvm.module.flags = !{!0}
!llvm.ident = !{!1}

!0 = !{i32 1, !"wchar_size", i32 4}
!1 = !{!"clang version 10.0.0-4ubuntu1 "}
